; Function Attrs: mustprogress uwtable
define noundef i64 @_ZN8facebook5velox10VectorPool7releaseERSt6vectorISt10shared_ptrINS0_10BaseVectorEESaIS5_EE(ptr noundef nonnull align 8 captures(none) dereferenceable(1856) %this, ptr noundef nonnull readonly align 8 captures(none) dereferenceable(24) %vectors) local_unnamed_addr #0 align 2 {
entry:
  %0 = load ptr, ptr %vectors, align 8
  %_M_finish.i = getelementptr inbounds nuw i8, ptr %vectors, i64 8
  %1 = load ptr, ptr %_M_finish.i, align 8
  %cmp.i.not6 = icmp eq ptr %0, %1
  br i1 %cmp.i.not6, label %for.end, label %for.body

for.body:                                         ; preds = %entry, %for.inc
  %numReleased.08 = phi i64 [ %numReleased.1, %for.inc ], [ 0, %entry ]
  %__begin2.sroa.0.07 = phi ptr [ %incdec.ptr.i, %for.inc ], [ %0, %entry ]
  %2 = load ptr, ptr %__begin2.sroa.0.07, align 8
  %cmp.i.i.not = icmp eq ptr %2, null
  br i1 %cmp.i.i.not, label %for.inc, label %if.then

if.then:                                          ; preds = %for.body
  %call7 = tail call noundef zeroext i1 @_ZN8facebook5velox10VectorPool7releaseERSt10shared_ptrINS0_10BaseVectorEE(ptr noundef nonnull align 8 dereferenceable(1856) %this, ptr noundef nonnull align 8 dereferenceable(16) %__begin2.sroa.0.07)
  %inc = zext i1 %call7 to i64
  %spec.select = add i64 %numReleased.08, %inc
  br label %for.inc

for.inc:                                          ; preds = %if.then, %for.body
  %numReleased.1 = phi i64 [ %numReleased.08, %for.body ], [ %spec.select, %if.then ]
  %incdec.ptr.i = getelementptr inbounds nuw i8, ptr %__begin2.sroa.0.07, i64 16
  %cmp.i.not = icmp eq ptr %incdec.ptr.i, %1
  br i1 %cmp.i.not, label %for.end, label %for.body

for.end:                                          ; preds = %for.inc, %entry
  %numReleased.0.lcssa = phi i64 [ 0, %entry ], [ %numReleased.1, %for.inc ]
  ret i64 %numReleased.0.lcssa
}